; Function Attrs: mustprogress uwtable
define noundef nonnull align 8 dereferenceable(16) ptr @_ZN6icu_776number4impl10StringPropaSERKS2_(ptr noundef nonnull returned align 8 dereferenceable(16) %0, ptr noundef nonnull readonly align 8 dereferenceable(16) %1) local_unnamed_addr #1 align 2 {
  %3 = icmp eq ptr %0, %1
  br i1 %3, label %30, label %4

4:                                                ; preds = %2
  %5 = getelementptr inbounds nuw i8, ptr %0, i64 8
  store i16 0, ptr %5, align 8, !tbaa !18
  %6 = getelementptr inbounds nuw i8, ptr %1, i64 12
  %7 = load i32, ptr %6, align 4, !tbaa !19
  %8 = getelementptr inbounds nuw i8, ptr %0, i64 12
  store i32 %7, ptr %8, align 4, !tbaa !19
  %9 = load ptr, ptr %0, align 8, !tbaa !15
  %.not = icmp eq ptr %9, null
  br i1 %.not, label %11, label %10

10:                                               ; preds = %4
  tail call void @uprv_free_77(ptr noundef nonnull %9)
  store ptr null, ptr %0, align 8, !tbaa !15
  %.pre = load i32, ptr %6, align 4
  br label %11

11:                                               ; preds = %10, %4
  %12 = phi i32 [ %.pre, %10 ], [ %7, %4 ]
  %13 = load ptr, ptr %1, align 8, !tbaa !15
  %14 = icmp ne ptr %13, null
  %15 = icmp slt i32 %12, 1
  %or.cond = select i1 %14, i1 %15, i1 false
  br i1 %or.cond, label %16, label %30

16:                                               ; preds = %11
  %17 = getelementptr inbounds nuw i8, ptr %1, i64 8
  %18 = load i16, ptr %17, align 8, !tbaa !18
  %19 = sext i16 %18 to i64
  %20 = add nsw i64 %19, 1
  %21 = tail call noalias ptr @uprv_malloc_77(i64 noundef %20) #16
  store ptr %21, ptr %0, align 8, !tbaa !15
  %22 = icmp eq ptr %21, null
  br i1 %22, label %23, label %24

23:                                               ; preds = %16
  store i32 7, ptr %8, align 4, !tbaa !19
  br label %30

24:                                               ; preds = %16
  %25 = load i16, ptr %17, align 8, !tbaa !18
  store i16 %25, ptr %5, align 8, !tbaa !18
  %26 = load ptr, ptr %1, align 8, !tbaa !15
  %27 = sext i16 %25 to i64
  %28 = add nsw i64 %27, 1
  %29 = tail call ptr @strncpy(ptr noundef nonnull %21, ptr noundef %26, i64 noundef %28) #15
  br label %30

30:                                               ; preds = %11, %2, %24, %23
  ret ptr %0
}